target datalayout = "e-m:e-p270:32:32-p271:32:32-p272:64:64-i64:64-i128:128-f80:128-n8:16:32:64-S128"
target triple = "x86_64-pc-linux-gnu"

%struct._zend_array = type { %struct._zend_refcounted_h, %union.anon.4, i32, %union.anon.6, i32, i32, i32, i32, i64, ptr }
%struct._zend_refcounted_h = type { i32, %union.anon.3 }
%union.anon.3 = type { i32 }
%union.anon.4 = type { i32 }
%union.anon.6 = type { ptr }
%struct._zval_struct = type { %union._zend_value, %union.anon, %union.anon.2 }
%union._zend_value = type { i64 }
%union.anon = type { i32 }
%union.anon.2 = type { i32 }
%struct._phar_entry_info = type { i32, i32, i32, i32, i32, i32, %struct._phar_metadata_tracker, i32, ptr, i32, i64, i64, i64, ptr, ptr, i32, ptr, ptr, ptr, i8, i32, i16, i16 }
%struct._phar_metadata_tracker = type { %struct._zval_struct, ptr }
%struct._phar_archive_data = type { ptr, i32, ptr, i32, ptr, i32, [12 x i8], i64, i64, %struct._zend_array, %struct._zend_array, %struct._zend_array, i32, i32, i32, ptr, ptr, i32, i32, i32, ptr, %struct._phar_metadata_tracker, i32, i16 }

@.str.13 = private unnamed_addr constant [44 x i8] c"phar error: unable to create temporary file\00", align 1
@.str.15 = private unnamed_addr constant [78 x i8] c"phar error: unable to copy contents of file \22%s\22 to \22%s\22 in phar archive \22%s\22\00", align 1

; Function Attrs: nounwind uwtable
define hidden i32 @phar_copy_entry_fp(ptr noundef %0, ptr noundef %1, ptr noundef %2) #0 {
  %4 = alloca i32, align 4
  %5 = alloca ptr, align 8
  %6 = alloca ptr, align 8
  %7 = alloca ptr, align 8
  %8 = alloca ptr, align 8
  store ptr %0, ptr %5, align 8
  store ptr %1, ptr %6, align 8
  store ptr %2, ptr %7, align 8
  %9 = load ptr, ptr %5, align 8
  %10 = load ptr, ptr %7, align 8
  %11 = call i32 @phar_open_entry_fp(ptr noundef %9, ptr noundef %10, i32 noundef 1)
  %12 = icmp eq i32 -1, %11
  br i1 %12, label %13, label %14

13:                                               ; preds = %3
  store i32 -1, ptr %4, align 4
  br label %102

14:                                               ; preds = %3
  %15 = load ptr, ptr %6, align 8
  %16 = getelementptr inbounds %struct._phar_entry_info, ptr %15, i32 0, i32 18
  %17 = load ptr, ptr %16, align 8
  %18 = icmp ne ptr %17, null
  br i1 %18, label %19, label %36

19:                                               ; preds = %14
  %20 = load ptr, ptr %6, align 8
  %21 = getelementptr inbounds %struct._phar_entry_info, ptr %20, i32 0, i32 18
  %22 = load ptr, ptr %21, align 8
  call void @_efree(ptr noundef %22)
  %23 = load ptr, ptr %6, align 8
  %24 = getelementptr inbounds %struct._phar_entry_info, ptr %23, i32 0, i32 18
  store ptr null, ptr %24, align 8
  %25 = load ptr, ptr %6, align 8
  %26 = getelementptr inbounds %struct._phar_entry_info, ptr %25, i32 0, i32 22
  %27 = load i16, ptr %26, align 2
  %28 = lshr i16 %27, 6
  %29 = and i16 %28, 1
  %30 = zext i16 %29 to i32
  %31 = icmp ne i32 %30, 0
  %32 = select i1 %31, i32 48, i32 0
  %33 = trunc i32 %32 to i8
  %34 = load ptr, ptr %6, align 8
  %35 = getelementptr inbounds %struct._phar_entry_info, ptr %34, i32 0, i32 19
  store i8 %33, ptr %35, align 8
  br label %36

36:                                               ; preds = %19, %14
  %37 = load ptr, ptr %6, align 8
  %38 = getelementptr inbounds %struct._phar_entry_info, ptr %37, i32 0, i32 9
  store i32 2, ptr %38, align 8
  %39 = load ptr, ptr %6, align 8
  %40 = getelementptr inbounds %struct._phar_entry_info, ptr %39, i32 0, i32 11
  store i64 0, ptr %40, align 8
  %41 = load ptr, ptr %6, align 8
  %42 = getelementptr inbounds %struct._phar_entry_info, ptr %41, i32 0, i32 22
  %43 = load i16, ptr %42, align 2
  %44 = and i16 %43, -3
  %45 = or i16 %44, 2
  store i16 %45, ptr %42, align 2
  %46 = call ptr @_php_stream_fopen_tmpfile(i32 noundef 0)
  %47 = load ptr, ptr %6, align 8
  %48 = getelementptr inbounds %struct._phar_entry_info, ptr %47, i32 0, i32 13
  store ptr %46, ptr %48, align 8
  %49 = load ptr, ptr %6, align 8
  %50 = getelementptr inbounds %struct._phar_entry_info, ptr %49, i32 0, i32 13
  %51 = load ptr, ptr %50, align 8
  %52 = icmp eq ptr %51, null
  br i1 %52, label %53, label %56

53:                                               ; preds = %36
  %54 = load ptr, ptr %7, align 8
  %55 = call i64 (ptr, i64, ptr, ...) @zend_spprintf(ptr noundef %54, i64 noundef 0, ptr noundef @.str.13)
  store i32 -1, ptr %4, align 4
  br label %102

56:                                               ; preds = %36
  %57 = load ptr, ptr %5, align 8
  %58 = call i32 @phar_seek_efp(ptr noundef %57, i64 noundef 0, i32 noundef 0, i64 noundef 0, i32 noundef 1)
  %59 = load ptr, ptr %5, align 8
  %60 = call ptr @phar_get_link_source(ptr noundef %59)
  store ptr %60, ptr %8, align 8
  %61 = load ptr, ptr %8, align 8
  %62 = icmp ne ptr %61, null
  br i1 %62, label %65, label %63

63:                                               ; preds = %56
  %64 = load ptr, ptr %5, align 8
  store ptr %64, ptr %8, align 8
  br label %65

65:                                               ; preds = %63, %56
  %66 = load ptr, ptr %8, align 8
  %67 = call ptr @phar_get_efp(ptr noundef %66, i32 noundef 0)
  %68 = load ptr, ptr %6, align 8
  %69 = getelementptr inbounds %struct._phar_entry_info, ptr %68, i32 0, i32 13
  %70 = load ptr, ptr %69, align 8
  %71 = load ptr, ptr %8, align 8
  %72 = getelementptr inbounds %struct._phar_entry_info, ptr %71, i32 0, i32 0
  %73 = load i32, ptr %72, align 8
  %74 = zext i32 %73 to i64
  %75 = call i32 @_php_stream_copy_to_stream_ex(ptr noundef %67, ptr noundef %70, i64 noundef %74, ptr noundef null)
  %76 = icmp ne i32 0, %75
  br i1 %76, label %77, label %101

77:                                               ; preds = %65
  %78 = load ptr, ptr %6, align 8
  %79 = getelementptr inbounds %struct._phar_entry_info, ptr %78, i32 0, i32 13
  %80 = load ptr, ptr %79, align 8
  %81 = call i32 @_php_stream_free(ptr noundef %80, i32 noundef 3)
  %82 = load ptr, ptr %6, align 8
  %83 = getelementptr inbounds %struct._phar_entry_info, ptr %82, i32 0, i32 9
  store i32 0, ptr %83, align 8
  %84 = load ptr, ptr %7, align 8
  %85 = icmp ne ptr %84, null
  br i1 %85, label %86, label %100

86:                                               ; preds = %77
  %87 = load ptr, ptr %7, align 8
  %88 = load ptr, ptr %5, align 8
  %89 = getelementptr inbounds %struct._phar_entry_info, ptr %88, i32 0, i32 8
  %90 = load ptr, ptr %89, align 8
  %91 = load ptr, ptr %6, align 8
  %92 = getelementptr inbounds %struct._phar_entry_info, ptr %91, i32 0, i32 8
  %93 = load ptr, ptr %92, align 8
  %94 = load ptr, ptr %5, align 8
  %95 = getelementptr inbounds %struct._phar_entry_info, ptr %94, i32 0, i32 17
  %96 = load ptr, ptr %95, align 8
  %97 = getelementptr inbounds %struct._phar_archive_data, ptr %96, i32 0, i32 0
  %98 = load ptr, ptr %97, align 8
  %99 = call i64 (ptr, i64, ptr, ...) @zend_spprintf(ptr noundef %87, i64 noundef 4096, ptr noundef @.str.15, ptr noundef %90, ptr noundef %93, ptr noundef %98)
  br label %100

100:                                              ; preds = %86, %77
  store i32 -1, ptr %4, align 4
  br label %102

101:                                              ; preds = %65
  store i32 0, ptr %4, align 4
  br label %102

102:                                              ; preds = %101, %100, %53, %13
  %103 = load i32, ptr %4, align 4
  ret i32 %103
}