; Function Attrs: nounwind uwtable
define hidden noundef i32 @phar_copy_entry_fp(ptr noundef %0, ptr nocapture noundef %1, ptr noundef %2) local_unnamed_addr #0 {
  %4 = tail call i32 @phar_open_entry_fp(ptr noundef %0, ptr noundef %2, i32 noundef 1), !range !5
  %5 = icmp eq i32 %4, -1
  br i1 %5, label %46, label %6

6:                                                ; preds = %3
  %7 = getelementptr inbounds i8, ptr %1, i64 136
  %8 = load ptr, ptr %7, align 8
  %.not = icmp eq ptr %8, null
  br i1 %.not, label %._crit_edge, label %9

._crit_edge:                                      ; preds = %6
  %.phi.trans.insert = getelementptr inbounds i8, ptr %1, i64 154
  %.pre = load i16, ptr %.phi.trans.insert, align 2
  br label %15

9:                                                ; preds = %6
  tail call void @_efree(ptr noundef nonnull %8) #15
  store ptr null, ptr %7, align 8
  %10 = getelementptr inbounds i8, ptr %1, i64 154
  %11 = load i16, ptr %10, align 2
  %12 = and i16 %11, 64
  %.not31 = icmp eq i16 %12, 0
  %13 = select i1 %.not31, i8 0, i8 48
  %14 = getelementptr inbounds i8, ptr %1, i64 144
  store i8 %13, ptr %14, align 8
  br label %15

15:                                               ; preds = %._crit_edge, %9
  %16 = phi i16 [ %.pre, %._crit_edge ], [ %11, %9 ]
  %17 = getelementptr inbounds i8, ptr %1, i64 64
  store i32 2, ptr %17, align 8
  %18 = getelementptr inbounds i8, ptr %1, i64 80
  store i64 0, ptr %18, align 8
  %19 = getelementptr inbounds i8, ptr %1, i64 154
  %20 = or i16 %16, 2
  store i16 %20, ptr %19, align 2
  %21 = tail call ptr @_php_stream_fopen_tmpfile(i32 noundef 0) #15
  %22 = getelementptr inbounds i8, ptr %1, i64 96
  store ptr %21, ptr %22, align 8
  %23 = icmp eq ptr %21, null
  br i1 %23, label %24, label %26

24:                                               ; preds = %15
  %25 = tail call i64 (ptr, i64, ptr, ...) @zend_spprintf(ptr noundef %2, i64 noundef 0, ptr noundef nonnull @.str.13) #15
  br label %46

26:                                               ; preds = %15
  %27 = tail call i32 @phar_seek_efp(ptr noundef %0, i64 noundef 0, i32 noundef 0, i64 noundef 0, i32 noundef 1)
  %28 = tail call ptr @phar_get_link_source(ptr noundef %0)
  %.not32 = icmp eq ptr %28, null
  %spec.select = select i1 %.not32, ptr %0, ptr %28
  %29 = tail call ptr @phar_get_efp(ptr noundef %spec.select, i32 noundef 0)
  %30 = load ptr, ptr %22, align 8
  %31 = load i32, ptr %spec.select, align 8
  %32 = zext i32 %31 to i64
  %33 = tail call i32 @_php_stream_copy_to_stream_ex(ptr noundef %29, ptr noundef %30, i64 noundef %32, ptr noundef null) #15
  %.not33 = icmp eq i32 %33, 0
  br i1 %.not33, label %46, label %34

34:                                               ; preds = %26
  %35 = load ptr, ptr %22, align 8
  %36 = tail call i32 @_php_stream_free(ptr noundef %35, i32 noundef 3) #15
  store i32 0, ptr %17, align 8
  %.not34 = icmp eq ptr %2, null
  br i1 %.not34, label %46, label %37

37:                                               ; preds = %34
  %38 = getelementptr inbounds i8, ptr %0, i64 56
  %39 = load ptr, ptr %38, align 8
  %40 = getelementptr inbounds i8, ptr %1, i64 56
  %41 = load ptr, ptr %40, align 8
  %42 = getelementptr inbounds i8, ptr %0, i64 128
  %43 = load ptr, ptr %42, align 8
  %44 = load ptr, ptr %43, align 8
  %45 = tail call i64 (ptr, i64, ptr, ...) @zend_spprintf(ptr noundef nonnull %2, i64 noundef 4096, ptr noundef nonnull @.str.15, ptr noundef %39, ptr noundef %41, ptr noundef %44) #15
  br label %46

46:                                               ; preds = %26, %34, %37, %3, %24
  %.027 = phi i32 [ -1, %24 ], [ -1, %3 ], [ -1, %37 ], [ -1, %34 ], [ 0, %26 ]
  ret i32 %.027
}